target datalayout = "e-m:e-p270:32:32-p271:32:32-p272:64:64-i64:64-i128:128-f80:128-n8:16:32:64-S128"
target triple = "x86_64-pc-linux-gnu"

%struct.SDL_HashTable = type { ptr, ptr, ptr, ptr, ptr, ptr, i32, i32, i32 }
%struct.SDL_HashItem = type { ptr, ptr, i32, i32 }

; Function Attrs: nounwind uwtable
define internal void @destroy_all(ptr noundef %0) #0 {
  %2 = alloca ptr, align 8
  %3 = alloca ptr, align 8
  %4 = alloca ptr, align 8
  %5 = alloca ptr, align 8
  %6 = alloca ptr, align 8
  store ptr %0, ptr %2, align 8
  call void @llvm.lifetime.start.p0(i64 8, ptr %3) #9
  %7 = load ptr, ptr %2, align 8
  %8 = getelementptr inbounds nuw %struct.SDL_HashTable, ptr %7, i32 0, i32 4
  %9 = load ptr, ptr %8, align 8
  store ptr %9, ptr %3, align 8
  %10 = load ptr, ptr %3, align 8
  %11 = icmp ne ptr %10, null
  br i1 %11, label %12, label %58

12:                                               ; preds = %1
  call void @llvm.lifetime.start.p0(i64 8, ptr %4) #9
  %13 = load ptr, ptr %2, align 8
  %14 = getelementptr inbounds nuw %struct.SDL_HashTable, ptr %13, i32 0, i32 5
  %15 = load ptr, ptr %14, align 8
  store ptr %15, ptr %4, align 8
  call void @llvm.lifetime.start.p0(i64 8, ptr %5) #9
  %16 = load ptr, ptr %2, align 8
  %17 = getelementptr inbounds nuw %struct.SDL_HashTable, ptr %16, i32 0, i32 1
  %18 = load ptr, ptr %17, align 8
  %19 = load ptr, ptr %2, align 8
  %20 = getelementptr inbounds nuw %struct.SDL_HashTable, ptr %19, i32 0, i32 6
  %21 = load i32, ptr %20, align 8
  %22 = add i32 %21, 1
  %23 = zext i32 %22 to i64
  %24 = getelementptr inbounds nuw %struct.SDL_HashItem, ptr %18, i64 %23
  store ptr %24, ptr %5, align 8
  call void @llvm.lifetime.start.p0(i64 8, ptr %6) #9
  %25 = load ptr, ptr %2, align 8
  %26 = getelementptr inbounds nuw %struct.SDL_HashTable, ptr %25, i32 0, i32 1
  %27 = load ptr, ptr %26, align 8
  store ptr %27, ptr %6, align 8
  br label %28

28:                                               ; preds = %54, %12
  %29 = load ptr, ptr %6, align 8
  %30 = load ptr, ptr %5, align 8
  %31 = icmp ult ptr %29, %30
  br i1 %31, label %33, label %32

32:                                               ; preds = %28
  call void @llvm.lifetime.end.p0(i64 8, ptr %6) #9
  br label %57

33:                                               ; preds = %28
  %34 = load ptr, ptr %6, align 8
  %35 = getelementptr inbounds nuw %struct.SDL_HashItem, ptr %34, i32 0, i32 3
  %36 = load i32, ptr %35, align 4
  %37 = lshr i32 %36, 31
  %38 = icmp ne i32 %37, 0
  br i1 %38, label %39, label %53

39:                                               ; preds = %33
  %40 = load ptr, ptr %6, align 8
  %41 = getelementptr inbounds nuw %struct.SDL_HashItem, ptr %40, i32 0, i32 3
  %42 = load i32, ptr %41, align 4
  %43 = and i32 %42, 2147483647
  %44 = or i32 %43, 0
  store i32 %44, ptr %41, align 4
  %45 = load ptr, ptr %3, align 8
  %46 = load ptr, ptr %4, align 8
  %47 = load ptr, ptr %6, align 8
  %48 = getelementptr inbounds nuw %struct.SDL_HashItem, ptr %47, i32 0, i32 0
  %49 = load ptr, ptr %48, align 8
  %50 = load ptr, ptr %6, align 8
  %51 = getelementptr inbounds nuw %struct.SDL_HashItem, ptr %50, i32 0, i32 1
  %52 = load ptr, ptr %51, align 8
  call void %45(ptr noundef %46, ptr noundef %49, ptr noundef %52)
  br label %53

53:                                               ; preds = %39, %33
  br label %54

54:                                               ; preds = %53
  %55 = load ptr, ptr %6, align 8
  %56 = getelementptr inbounds nuw %struct.SDL_HashItem, ptr %55, i32 1
  store ptr %56, ptr %6, align 8
  br label %28, !llvm.loop !7

57:                                               ; preds = %32
  call void @llvm.lifetime.end.p0(i64 8, ptr %5) #9
  call void @llvm.lifetime.end.p0(i64 8, ptr %4) #9
  br label %58

58:                                               ; preds = %57, %1
  call void @llvm.lifetime.end.p0(i64 8, ptr %3) #9
  ret void
}

; Function Attrs: alwaysinline nounwind uwtable
define internal zeroext i1 @SDL_HasExactlyOneBitSet32(i32 noundef %0) #6 {
  %2 = alloca i1, align 1
  %3 = alloca i32, align 4
  store i32 %0, ptr %3, align 4
  %4 = load i32, ptr %3, align 4
  %5 = icmp ne i32 %4, 0
  br i1 %5, label %6, label %13

6:                                                ; preds = %1
  %7 = load i32, ptr %3, align 4
  %8 = load i32, ptr %3, align 4
  %9 = sub i32 %8, 1
  %10 = and i32 %7, %9
  %11 = icmp ne i32 %10, 0
  br i1 %11, label %13, label %12

12:                                               ; preds = %6
  store i1 true, ptr %2, align 1
  br label %14

13:                                               ; preds = %6, %1
  store i1 false, ptr %2, align 1
  br label %14

14:                                               ; preds = %13, %12
  %15 = load i1, ptr %2, align 1
  ret i1 %15
}

; Function Attrs: alwaysinline nounwind uwtable
define internal i32 @SDL_MostSignificantBitIndex32(i32 noundef %0) #6 {
  %2 = alloca i32, align 4
  %3 = alloca i32, align 4
  store i32 %0, ptr %3, align 4
  %4 = load i32, ptr %3, align 4
  %5 = icmp eq i32 %4, 0
  br i1 %5, label %6, label %7

6:                                                ; preds = %1
  store i32 -1, ptr %2, align 4
  br label %11

7:                                                ; preds = %1
  %8 = load i32, ptr %3, align 4
  %9 = call i32 @llvm.ctlz.i32(i32 %8, i1 true)
  %10 = sub nsw i32 31, %9
  store i32 %10, ptr %2, align 4
  br label %11

11:                                               ; preds = %7, %6
  %12 = load i32, ptr %2, align 4
  ret i32 %12
}

; Function Attrs: nounwind uwtable
define hidden void @SDL_DestroyHashTable(ptr noundef %0) #0 {
  %2 = alloca ptr, align 8
  store ptr %0, ptr %2, align 8
  %3 = load ptr, ptr %2, align 8
  %4 = icmp ne ptr %3, null
  br i1 %4, label %5, label %20

5:                                                ; preds = %1
  %6 = load ptr, ptr %2, align 8
  call void @destroy_all(ptr noundef %6)
  %7 = load ptr, ptr %2, align 8
  %8 = getelementptr inbounds nuw %struct.SDL_HashTable, ptr %7, i32 0, i32 0
  %9 = load ptr, ptr %8, align 8
  %10 = icmp ne ptr %9, null
  br i1 %10, label %11, label %15

11:                                               ; preds = %5
  %12 = load ptr, ptr %2, align 8
  %13 = getelementptr inbounds nuw %struct.SDL_HashTable, ptr %12, i32 0, i32 0
  %14 = load ptr, ptr %13, align 8
  call void @SDL_DestroyRWLock_REAL(ptr noundef %14)
  br label %15

15:                                               ; preds = %11, %5
  %16 = load ptr, ptr %2, align 8
  %17 = getelementptr inbounds nuw %struct.SDL_HashTable, ptr %16, i32 0, i32 1
  %18 = load ptr, ptr %17, align 8
  call void @SDL_free_REAL(ptr noundef %18)
  %19 = load ptr, ptr %2, align 8
  call void @SDL_free_REAL(ptr noundef %19)
  br label %20

20:                                               ; preds = %15, %1
  ret void
}

; Function Attrs: nounwind uwtable
define internal i32 @CalculateHashBucketsFromEstimate(i32 noundef %0) #0 {
  %2 = alloca i32, align 4
  %3 = alloca i32, align 4
  %4 = alloca i32, align 4
  %5 = alloca i32, align 4
  store i32 %0, ptr %3, align 4
  %6 = load i32, ptr %3, align 4
  %7 = icmp sle i32 %6, 0
  br i1 %7, label %8, label %9

8:                                                ; preds = %1
  store i32 4, ptr %2, align 4
  br label %27

9:                                                ; preds = %1
  call void @llvm.lifetime.start.p0(i64 4, ptr %4) #9
  %10 = load i32, ptr %3, align 4
  store i32 %10, ptr %4, align 4
  call void @llvm.lifetime.start.p0(i64 4, ptr %5) #9
  %11 = load i32, ptr %4, align 4
  %12 = call i32 @SDL_MostSignificantBitIndex32(i32 noundef %11)
  %13 = shl i32 1, %12
  store i32 %13, ptr %5, align 4
  %14 = load i32, ptr %4, align 4
  %15 = call zeroext i1 @SDL_HasExactlyOneBitSet32(i32 noundef %14)
  br i1 %15, label %19, label %16

16:                                               ; preds = %9
  %17 = load i32, ptr %5, align 4
  %18 = shl i32 %17, 1
  store i32 %18, ptr %5, align 4
  br label %19

19:                                               ; preds = %16, %9
  %20 = load i32, ptr %5, align 4
  %21 = icmp ult i32 %20, 67108864
  br i1 %21, label %22, label %24

22:                                               ; preds = %19
  %23 = load i32, ptr %5, align 4
  br label %25

24:                                               ; preds = %19
  br label %25

25:                                               ; preds = %24, %22
  %26 = phi i32 [ %23, %22 ], [ 67108864, %24 ]
  store i32 %26, ptr %2, align 4
  call void @llvm.lifetime.end.p0(i64 4, ptr %5) #9
  call void @llvm.lifetime.end.p0(i64 4, ptr %4) #9
  br label %27

27:                                               ; preds = %25, %8
  %28 = load i32, ptr %2, align 4
  ret i32 %28
}

; Function Attrs: nounwind uwtable
define hidden ptr @SDL_CreateHashTable(i32 noundef %0, i1 noundef zeroext %1, ptr noundef %2, ptr noundef %3, ptr noundef %4, ptr noundef %5) #0 {
  %7 = alloca ptr, align 8
  %8 = alloca i32, align 4
  %9 = alloca i8, align 1
  %10 = alloca ptr, align 8
  %11 = alloca ptr, align 8
  %12 = alloca ptr, align 8
  %13 = alloca ptr, align 8
  %14 = alloca i32, align 4
  %15 = alloca ptr, align 8
  %16 = alloca i32, align 4
  store i32 %0, ptr %8, align 4
  %17 = zext i1 %1 to i8
  store i8 %17, ptr %9, align 1
  store ptr %2, ptr %10, align 8
  store ptr %3, ptr %11, align 8
  store ptr %4, ptr %12, align 8
  store ptr %5, ptr %13, align 8
  call void @llvm.lifetime.start.p0(i64 4, ptr %14) #9
  %18 = load i32, ptr %8, align 4
  %19 = call i32 @CalculateHashBucketsFromEstimate(i32 noundef %18)
  store i32 %19, ptr %14, align 4
  call void @llvm.lifetime.start.p0(i64 8, ptr %15) #9
  %20 = call noalias ptr @SDL_calloc_REAL(i64 noundef 1, i64 noundef 64) #10
  store ptr %20, ptr %15, align 8
  %21 = load ptr, ptr %15, align 8
  %22 = icmp ne ptr %21, null
  br i1 %22, label %24, label %23

23:                                               ; preds = %6
  store ptr null, ptr %7, align 8
  store i32 1, ptr %16, align 4
  br label %68

24:                                               ; preds = %6
  %25 = load i8, ptr %9, align 1, !range !3, !noundef !4
  %26 = trunc i8 %25 to i1
  br i1 %26, label %27, label %38

27:                                               ; preds = %24
  %28 = call ptr @SDL_CreateRWLock_REAL()
  %29 = load ptr, ptr %15, align 8
  %30 = getelementptr inbounds nuw %struct.SDL_HashTable, ptr %29, i32 0, i32 0
  store ptr %28, ptr %30, align 8
  %31 = load ptr, ptr %15, align 8
  %32 = getelementptr inbounds nuw %struct.SDL_HashTable, ptr %31, i32 0, i32 0
  %33 = load ptr, ptr %32, align 8
  %34 = icmp ne ptr %33, null
  br i1 %34, label %37, label %35

35:                                               ; preds = %27
  %36 = load ptr, ptr %15, align 8
  call void @SDL_DestroyHashTable(ptr noundef %36)
  store ptr null, ptr %7, align 8
  store i32 1, ptr %16, align 4
  br label %68

37:                                               ; preds = %27
  br label %38

38:                                               ; preds = %37, %24
  %39 = load i32, ptr %14, align 4
  %40 = zext i32 %39 to i64
  %41 = call noalias ptr @SDL_calloc_REAL(i64 noundef %40, i64 noundef 24) #10
  %42 = load ptr, ptr %15, align 8
  %43 = getelementptr inbounds nuw %struct.SDL_HashTable, ptr %42, i32 0, i32 1
  store ptr %41, ptr %43, align 8
  %44 = load ptr, ptr %15, align 8
  %45 = getelementptr inbounds nuw %struct.SDL_HashTable, ptr %44, i32 0, i32 1
  %46 = load ptr, ptr %45, align 8
  %47 = icmp ne ptr %46, null
  br i1 %47, label %50, label %48

48:                                               ; preds = %38
  %49 = load ptr, ptr %15, align 8
  call void @SDL_DestroyHashTable(ptr noundef %49)
  store ptr null, ptr %7, align 8
  store i32 1, ptr %16, align 4
  br label %68

50:                                               ; preds = %38
  %51 = load i32, ptr %14, align 4
  %52 = sub i32 %51, 1
  %53 = load ptr, ptr %15, align 8
  %54 = getelementptr inbounds nuw %struct.SDL_HashTable, ptr %53, i32 0, i32 6
  store i32 %52, ptr %54, align 8
  %55 = load ptr, ptr %13, align 8
  %56 = load ptr, ptr %15, align 8
  %57 = getelementptr inbounds nuw %struct.SDL_HashTable, ptr %56, i32 0, i32 5
  store ptr %55, ptr %57, align 8
  %58 = load ptr, ptr %10, align 8
  %59 = load ptr, ptr %15, align 8
  %60 = getelementptr inbounds nuw %struct.SDL_HashTable, ptr %59, i32 0, i32 2
  store ptr %58, ptr %60, align 8
  %61 = load ptr, ptr %11, align 8
  %62 = load ptr, ptr %15, align 8
  %63 = getelementptr inbounds nuw %struct.SDL_HashTable, ptr %62, i32 0, i32 3
  store ptr %61, ptr %63, align 8
  %64 = load ptr, ptr %12, align 8
  %65 = load ptr, ptr %15, align 8
  %66 = getelementptr inbounds nuw %struct.SDL_HashTable, ptr %65, i32 0, i32 4
  store ptr %64, ptr %66, align 8
  %67 = load ptr, ptr %15, align 8
  store ptr %67, ptr %7, align 8
  store i32 1, ptr %16, align 4
  br label %68

68:                                               ; preds = %50, %48, %35, %23
  call void @llvm.lifetime.end.p0(i64 8, ptr %15) #9
  call void @llvm.lifetime.end.p0(i64 4, ptr %14) #9
  %69 = load ptr, ptr %7, align 8
  ret ptr %69
}