; Function Attrs: nounwind uwtable
define hidden noundef ptr @SDL_CreateHashTable(i32 noundef %0, i1 noundef zeroext %1, ptr noundef %2, ptr noundef %3, ptr noundef %4, ptr noundef %5) local_unnamed_addr #0 {
  %7 = icmp slt i32 %0, 1
  br i1 %7, label %CalculateHashBucketsFromEstimate.exit, label %8

8:                                                ; preds = %6
  %9 = tail call range(i32 1, 33) i32 @llvm.ctlz.i32(i32 range(i32 1, -2147483648) %0, i1 true)
  %10 = xor i32 %9, 31
  %11 = tail call range(i32 1, 32) i32 @llvm.ctpop.i32(i32 range(i32 1, -2147483648) %0)
  %.not.i.i = icmp samesign ult i32 %11, 2
  %spec.select.i = select i1 %.not.i.i, i32 1, i32 2
  %.0.i = shl nuw i32 %spec.select.i, %10
  %12 = tail call i32 @llvm.umin.i32(i32 %.0.i, i32 67108864)
  br label %CalculateHashBucketsFromEstimate.exit

CalculateHashBucketsFromEstimate.exit:            ; preds = %6, %8
  %.08.i = phi i32 [ %12, %8 ], [ 4, %6 ]
  %13 = tail call noalias dereferenceable_or_null(64) ptr @SDL_calloc_REAL(i64 noundef 1, i64 noundef 64) #9
  %.not = icmp eq ptr %13, null
  br i1 %.not, label %78, label %14

14:                                               ; preds = %CalculateHashBucketsFromEstimate.exit
  br i1 %1, label %15, label %43

15:                                               ; preds = %14
  %16 = tail call ptr @SDL_CreateRWLock_REAL() #10
  store ptr %16, ptr %13, align 8
  %.not22 = icmp eq ptr %16, null
  br i1 %.not22, label %17, label %43

17:                                               ; preds = %15
  %18 = getelementptr inbounds nuw i8, ptr %13, i64 32
  %19 = load ptr, ptr %18, align 8
  %.not.i.i24 = icmp eq ptr %19, null
  br i1 %.not.i.i24, label %SDL_DestroyHashTable.exit, label %20

20:                                               ; preds = %17
  %21 = getelementptr inbounds nuw i8, ptr %13, i64 40
  %22 = load ptr, ptr %21, align 8
  %23 = getelementptr inbounds nuw i8, ptr %13, i64 8
  %24 = load ptr, ptr %23, align 8
  %25 = getelementptr inbounds nuw i8, ptr %13, i64 48
  %26 = load i32, ptr %25, align 8
  %27 = add i32 %26, 1
  %28 = zext i32 %27 to i64
  %29 = getelementptr inbounds nuw %struct.SDL_HashItem, ptr %24, i64 %28
  %.not18.i.i = icmp eq i32 %27, 0
  br i1 %.not18.i.i, label %SDL_DestroyHashTable.exit, label %.lr.ph.i.i

.lr.ph.i.i:                                       ; preds = %20, %37
  %.017.i.i = phi ptr [ %38, %37 ], [ %24, %20 ]
  %30 = getelementptr inbounds nuw i8, ptr %.017.i.i, i64 20
  %31 = load i32, ptr %30, align 4
  %.not16.i.i = icmp sgt i32 %31, -1
  br i1 %.not16.i.i, label %37, label %32

32:                                               ; preds = %.lr.ph.i.i
  %33 = and i32 %31, 2147483647
  store i32 %33, ptr %30, align 4
  %34 = load ptr, ptr %.017.i.i, align 8
  %35 = getelementptr inbounds nuw i8, ptr %.017.i.i, i64 8
  %36 = load ptr, ptr %35, align 8
  tail call void %19(ptr noundef %22, ptr noundef %34, ptr noundef %36) #10
  br label %37

37:                                               ; preds = %32, %.lr.ph.i.i
  %38 = getelementptr inbounds nuw i8, ptr %.017.i.i, i64 24
  %39 = icmp ult ptr %38, %29
  br i1 %39, label %.lr.ph.i.i, label %destroy_all.exit.i, !llvm.loop !3

destroy_all.exit.i:                               ; preds = %37
  %.pre = load ptr, ptr %13, align 8
  %.not7.i = icmp eq ptr %.pre, null
  br i1 %.not7.i, label %SDL_DestroyHashTable.exit, label %40

40:                                               ; preds = %destroy_all.exit.i
  tail call void @SDL_DestroyRWLock_REAL(ptr noundef nonnull %.pre) #10
  br label %SDL_DestroyHashTable.exit

SDL_DestroyHashTable.exit:                        ; preds = %17, %20, %destroy_all.exit.i, %40
  %41 = getelementptr inbounds nuw i8, ptr %13, i64 8
  %42 = load ptr, ptr %41, align 8
  tail call void @SDL_free_REAL(ptr noundef %42) #10
  tail call void @SDL_free_REAL(ptr noundef nonnull %13) #10
  br label %78

43:                                               ; preds = %15, %14
  %44 = zext nneg i32 %.08.i to i64
  %45 = tail call noalias ptr @SDL_calloc_REAL(i64 noundef %44, i64 noundef 24) #9
  %46 = getelementptr inbounds nuw i8, ptr %13, i64 8
  store ptr %45, ptr %46, align 8
  %.not23 = icmp eq ptr %45, null
  br i1 %.not23, label %47, label %71

47:                                               ; preds = %43
  %48 = getelementptr inbounds nuw i8, ptr %13, i64 32
  %49 = load ptr, ptr %48, align 8
  %.not.i.i26 = icmp eq ptr %49, null
  br i1 %.not.i.i26, label %destroy_all.exit.i31, label %50

50:                                               ; preds = %47
  %51 = getelementptr inbounds nuw i8, ptr %13, i64 40
  %52 = load ptr, ptr %51, align 8
  %53 = getelementptr inbounds nuw i8, ptr %13, i64 48
  %54 = load i32, ptr %53, align 8
  %55 = add i32 %54, 1
  %56 = zext i32 %55 to i64
  %57 = getelementptr inbounds nuw %struct.SDL_HashItem, ptr null, i64 %56
  %.not18.i.i27 = icmp eq i32 %55, 0
  br i1 %.not18.i.i27, label %destroy_all.exit.i31, label %.lr.ph.i.i28

.lr.ph.i.i28:                                     ; preds = %50, %65
  %.017.i.i29 = phi ptr [ %66, %65 ], [ null, %50 ]
  %58 = getelementptr inbounds nuw i8, ptr %.017.i.i29, i64 20
  %59 = load i32, ptr %58, align 4
  %.not16.i.i30 = icmp sgt i32 %59, -1
  br i1 %.not16.i.i30, label %65, label %60

60:                                               ; preds = %.lr.ph.i.i28
  %61 = and i32 %59, 2147483647
  store i32 %61, ptr %58, align 4
  %62 = load ptr, ptr %.017.i.i29, align 8
  %63 = getelementptr inbounds nuw i8, ptr %.017.i.i29, i64 8
  %64 = load ptr, ptr %63, align 8
  tail call void %49(ptr noundef %52, ptr noundef %62, ptr noundef %64) #10
  br label %65

65:                                               ; preds = %60, %.lr.ph.i.i28
  %66 = getelementptr inbounds nuw i8, ptr %.017.i.i29, i64 24
  %67 = icmp ult ptr %66, %57
  br i1 %67, label %.lr.ph.i.i28, label %destroy_all.exit.i31, !llvm.loop !3

destroy_all.exit.i31:                             ; preds = %65, %50, %47
  %68 = load ptr, ptr %13, align 8
  %.not7.i32 = icmp eq ptr %68, null
  br i1 %.not7.i32, label %SDL_DestroyHashTable.exit33, label %69

69:                                               ; preds = %destroy_all.exit.i31
  tail call void @SDL_DestroyRWLock_REAL(ptr noundef nonnull %68) #10
  br label %SDL_DestroyHashTable.exit33

SDL_DestroyHashTable.exit33:                      ; preds = %destroy_all.exit.i31, %69
  %70 = load ptr, ptr %46, align 8
  tail call void @SDL_free_REAL(ptr noundef %70) #10
  tail call void @SDL_free_REAL(ptr noundef nonnull %13) #10
  br label %78

71:                                               ; preds = %43
  %72 = add nsw i32 %.08.i, -1
  %73 = getelementptr inbounds nuw i8, ptr %13, i64 48
  store i32 %72, ptr %73, align 8
  %74 = getelementptr inbounds nuw i8, ptr %13, i64 40
  store ptr %5, ptr %74, align 8
  %75 = getelementptr inbounds nuw i8, ptr %13, i64 16
  store ptr %2, ptr %75, align 8
  %76 = getelementptr inbounds nuw i8, ptr %13, i64 24
  store ptr %3, ptr %76, align 8
  %77 = getelementptr inbounds nuw i8, ptr %13, i64 32
  store ptr %4, ptr %77, align 8
  br label %78

78:                                               ; preds = %CalculateHashBucketsFromEstimate.exit, %71, %SDL_DestroyHashTable.exit33, %SDL_DestroyHashTable.exit
  %.0 = phi ptr [ %13, %71 ], [ null, %SDL_DestroyHashTable.exit33 ], [ null, %SDL_DestroyHashTable.exit ], [ null, %CalculateHashBucketsFromEstimate.exit ]
  ret ptr %.0
}